; Function Attrs: mustprogress uwtable
define noundef nonnull ptr @_ZN6LibRaw6mallocEm(ptr noundef nonnull readonly align 8 captures(none) dereferenceable(767680) %0, i64 noundef %1) local_unnamed_addr #4 align 2 {
  %3 = getelementptr inbounds nuw i8, ptr %0, i64 767424
  %4 = load i32, ptr %3, align 8, !tbaa !13
  %5 = zext i32 %4 to i64
  %6 = add i64 %1, %5
  %7 = tail call noalias ptr @malloc(i64 noundef %6) #29
  %.not.i.i = icmp eq ptr %7, null
  br i1 %.not.i.i, label %_ZN13libraw_memmgr6mallocEm.exit.thread, label %.preheader.i.i

.preheader.i.i:                                   ; preds = %2
  %8 = getelementptr inbounds nuw i8, ptr %0, i64 767416
  %9 = load ptr, ptr %8, align 8, !tbaa !16
  br label %11

10:                                               ; preds = %11
  %indvars.iv.next.i.i = add nuw nsw i64 %indvars.iv.i.i, 1
  %exitcond.not.i.i = icmp eq i64 %indvars.iv.next.i.i, 511
  br i1 %exitcond.not.i.i, label %14, label %11, !llvm.loop !17

11:                                               ; preds = %10, %.preheader.i.i
  %indvars.iv.i.i = phi i64 [ 0, %.preheader.i.i ], [ %indvars.iv.next.i.i, %10 ]
  %12 = getelementptr inbounds nuw ptr, ptr %9, i64 %indvars.iv.i.i
  %13 = load ptr, ptr %12, align 8, !tbaa !19
  %.not10.i.i = icmp eq ptr %13, null
  br i1 %.not10.i.i, label %_ZN13libraw_memmgr6mallocEm.exit, label %10

14:                                               ; preds = %10
  %15 = getelementptr inbounds nuw i8, ptr %9, i64 4088
  %16 = load ptr, ptr %15, align 8, !tbaa !19
  %.not11.i.i = icmp eq ptr %16, null
  br i1 %.not11.i.i, label %17, label %18

17:                                               ; preds = %14
  store ptr %7, ptr %15, align 8, !tbaa !19
  br label %18

18:                                               ; preds = %17, %14
  %19 = tail call ptr @__cxa_allocate_exception(i64 4) #30
  store i32 11, ptr %19, align 16, !tbaa !20
  tail call void @__cxa_throw(ptr nonnull %19, ptr nonnull @_ZTI17LibRaw_exceptions, ptr null) #31
  unreachable

_ZN13libraw_memmgr6mallocEm.exit:                 ; preds = %11
  %20 = getelementptr inbounds nuw ptr, ptr %9, i64 %indvars.iv.i.i
  store ptr %7, ptr %20, align 8, !tbaa !19
  ret ptr %7

_ZN13libraw_memmgr6mallocEm.exit.thread:          ; preds = %2
  %21 = tail call ptr @__cxa_allocate_exception(i64 4) #30
  store i32 1, ptr %21, align 16, !tbaa !20
  tail call void @__cxa_throw(ptr nonnull %21, ptr nonnull @_ZTI17LibRaw_exceptions, ptr null) #31
  unreachable
}